Certificate:
    Data:
        Version: 3 (0x2)
        Serial Number:
            25:c5:2a:26:3f:46:67:93:1e:48:9e:97:31:e6:41:0d:cb:fe:2c:6d
        Signature Algorithm: sha256WithRSAEncryption
        Issuer: C = FR, L = Orleans, O = Sterfive, CN = NodeOPCUA@DESKTOP-9RM54JA
        Validity
            Not Before: Feb 23 19:01:56 2022 GMT
            Not After : Feb 21 19:01:56 2032 GMT
        Subject: C = FR, L = Orleans, O = Sterfive, CN = NodeOPCUA@DESKTOP-9RM54JA
        Subject Public Key Info:
            Public Key Algorithm: rsaEncryption
                RSA Public-Key: (2048 bit)
                Modulus:
                    00:b3:11:ad:38:15:49:88:c1:37:7d:69:25:3e:ce:
                    4f:d5:40:9b:93:85:e8:b1:47:df:36:a9:5e:9b:f5:
                    20:6d:fc:85:35:6f:dc:33:4d:f9:a8:f1:cf:15:56:
                    a6:15:13:a2:35:90:d3:1d:bf:2e:5e:b2:7d:2d:0a:
                    09:7d:82:93:71:1a:b0:e2:62:bb:40:a6:5c:83:ca:
                    a9:60:c9:56:c7:78:6b:3b:b3:c5:13:28:bc:ae:49:
                    8a:be:a7:be:0a:27:4a:a9:b3:52:38:b3:ea:59:93:
                    f3:55:ba:48:d9:90:75:16:35:07:52:63:e0:55:31:
                    18:2d:75:8b:f3:b7:e9:ab:92:1f:94:df:22:db:5f:
                    26:63:1d:e6:56:10:16:67:dd:fa:11:c5:cb:a5:b1:
                    46:b3:3e:d0:e8:c0:e1:a0:04:c0:59:0a:21:62:77:
                    66:b0:15:3e:e3:4c:44:41:55:a8:4b:f7:29:ee:14:
                    87:e9:f2:54:e3:60:f9:e0:93:1c:0c:3a:e6:a1:7f:
                    3e:69:66:ef:af:9e:92:5b:54:2e:3e:4f:4f:11:71:
                    3e:ed:ad:2d:74:3b:58:a7:cf:9f:06:c6:db:86:aa:
                    cd:70:33:fb:c9:f2:63:d8:a7:c8:5b:b4:57:11:6c:
                    45:fa:56:f0:26:9c:42:87:8c:28:29:aa:e6:70:16:
                    44:ed
                Exponent: 65537 (0x10001)
        X509v3 extensions:
            X509v3 Subject Key Identifier: 
                5B:B3:C7:10:3B:8A:F5:62:55:AF:94:E0:9C:88:ED:A8:FD:52:BC:F1
            X509v3 Authority Key Identifier: 
                keyid:5B:B3:C7:10:3B:8A:F5:62:55:AF:94:E0:9C:88:ED:A8:FD:52:BC:F1

            X509v3 Basic Constraints: critical
                CA:FALSE
            X509v3 Key Usage: 
                Digital Signature, Non Repudiation, Key Encipherment, Data Encipherment, Certificate Sign
            X509v3 Extended Key Usage: 
                TLS Web Client Authentication, TLS Web Server Authentication
            Netscape Comment: 
                Self-signed certificate generated by Node-OPCUA Certificate utility
            X509v3 Subject Alternative Name: 
                URI:urn:DESKTOP-9RM54JA:NodeOPCUA-Server, DNS:DESKTOP-9RM54JA
    Signature Algorithm: sha256WithRSAEncryption
         49:f1:00:72:0a:5d:fc:cc:90:ac:5e:6c:80:86:27:e3:75:f6:
         45:47:fd:18:52:91:ec:62:53:38:89:68:b4:71:3d:de:42:48:
         26:4f:25:3a:28:31:94:73:88:6f:5e:86:ff:4e:73:da:ae:03:
         eb:4b:69:55:97:2b:e5:35:0a:41:f2:86:13:11:cc:59:b2:52:
         29:1f:37:e6:19:3f:a1:9b:cf:6d:5e:bd:e2:ca:7a:7e:98:7b:
         3d:b3:f1:53:cf:e5:67:57:e2:bc:e8:0e:e1:e9:7f:26:5b:c3:
         9c:81:a2:d1:c9:c5:6d:3e:27:a4:e8:8c:d7:05:1f:dd:e5:cc:
         e5:5c:bb:b6:48:78:b3:08:de:a3:16:17:cb:44:25:23:5c:82:
         0f:9f:d4:1a:4a:20:20:c5:b2:33:df:6c:0a:1a:e3:4f:50:61:
         4c:03:15:93:5f:9b:46:85:b5:1a:7d:ec:f1:77:77:93:03:62:
         3d:19:c8:7d:c8:de:d7:f3:0b:74:68:c8:6b:d2:24:e8:0a:28:
         3d:11:02:09:27:84:38:99:fc:58:98:ab:a6:59:21:68:9f:bf:
         6b:f8:83:f8:55:05:bf:3a:e7:d3:d7:fc:82:1c:a1:2e:b8:d5:
         3a:2a:6f:de:b4:a4:70:dc:f0:f9:6c:0f:a4:65:55:0f:23:eb:
         b5:82:94:c3
-----BEGIN CERTIFICATE-----
MIIEUDCCAzigAwIBAgIUJcUqJj9GZ5MeSJ6XMeZBDcv+LG0wDQYJKoZIhvcNAQEL
BQAwVjELMAkGA1UEBhMCRlIxEDAOBgNVBAcMB09ybGVhbnMxETAPBgNVBAoMCFN0
ZXJmaXZlMSIwIAYDVQQDDBlOb2RlT1BDVUFAREVTS1RPUC05Uk01NEpBMB4XDTIy
MDIyMzE5MDE1NloXDTMyMDIyMTE5MDE1NlowVjELMAkGA1UEBhMCRlIxEDAOBgNV
BAcMB09ybGVhbnMxETAPBgNVBAoMCFN0ZXJmaXZlMSIwIAYDVQQDDBlOb2RlT1BD
VUFAREVTS1RPUC05Uk01NEpBMIIBIjANBgkqhkiG9w0BAQEFAAOCAQ8AMIIBCgKC
AQEAsxGtOBVJiME3fWklPs5P1UCbk4XosUffNqlem/UgbfyFNW/cM035qPHPFVam
FROiNZDTHb8uXrJ9LQoJfYKTcRqw4mK7QKZcg8qpYMlWx3hrO7PFEyi8rkmKvqe+
CidKqbNSOLPqWZPzVbpI2ZB1FjUHUmPgVTEYLXWL87fpq5IflN8i218mYx3mVhAW
Z936EcXLpbFGsz7Q6MDhoATAWQohYndmsBU+40xEQVWoS/cp7hSH6fJU42D54JMc
DDrmoX8+aWbvr56SW1QuPk9PEXE+7a0tdDtYp8+fBsbbhqrNcDP7yfJj2KfIW7RX
EWxF+lbwJpxCh4woKarmcBZE7QIDAQABo4IBFDCCARAwHQYDVR0OBBYEFFuzxxA7
ivViVa+U4JyI7aj9UrzxMB8GA1UdIwQYMBaAFFuzxxA7ivViVa+U4JyI7aj9Urzx
MAwGA1UdEwEB/wQCMAAwCwYDVR0PBAQDAgL0MB0GA1UdJQQWMBQGCCsGAQUFBwMC
BggrBgEFBQcDATBSBglghkgBhvhCAQ0ERRZDU2VsZi1zaWduZWQgY2VydGlmaWNh
dGUgZ2VuZXJhdGVkIGJ5IE5vZGUtT1BDVUEgQ2VydGlmaWNhdGUgdXRpbGl0eTBA
BgNVHREEOTA3hiR1cm46REVTS1RPUC05Uk01NEpBOk5vZGVPUENVQS1TZXJ2ZXKC
D0RFU0tUT1AtOVJNNTRKQTANBgkqhkiG9w0BAQsFAAOCAQEASfEAcgpd/MyQrF5s
gIYn43X2RUf9GFKR7GJTOIlotHE93kJIJk8lOigxlHOIb16G/05z2q4D60tpVZcr
5TUKQfKGExHMWbJSKR835hk/oZvPbV694sp6fph7PbPxU8/lZ1fivOgO4el/JlvD
nIGi0cnFbT4npOiM1wUf3eXM5Vy7tkh4swjeoxYXy0QlI1yCD5/UGkogIMWyM99s
ChrjT1BhTAMVk1+bRoW1Gn3s8Xd3kwNiPRnIfcje1/MLdGjIa9Ik6AooPRECCSeE
OJn8WJirplkhaJ+/a/iD+FUFvzrn09f8ghyhLrjVOipv3rSkcNzw+WwPpGVVDyPr
tYKUww==
-----END CERTIFICATE-----
